(dp0
I0
(dp1
S'RTITM'
p2
F0.27666497230529785
sS'RTISY'
p3
F0.07739090919494629
sS'ARIMA'
p4
F3.6220390796661377
sS'RAI'
p5
F2.7416861057281494
sS'HMM'
p6
F22.664201974868774
sS'ARMA'
p7
F0.967210054397583
ssI1
(dp8
g2
F0.33901190757751465
sg3
F0.08261799812316895
sg4
F1.9066641330718994
sg5
F2.7619071006774902
sg6
F17.708431005477905
sg7
F1.701390027999878
ssI2
(dp9
g2
F0.3552889823913574
sg3
F0.08240103721618652
sg4
F6.7509870529174805
sg5
F3.785646915435791
sg6
F65.41979193687439
sg7
F2.905987024307251
ssI3
(dp10
g2
F0.3239119052886963
sg3
F0.07542705535888672
sg4
F1.9093608856201172
sg5
F2.7570250034332275
sg6
F103.32349395751953
sg7
F0.9594950675964355
ssI4
(dp11
g2
F0.23305606842041016
sg3
F0.08240914344787598
sg4
F4.741782903671265
sg5
F3.5627570152282715
sg6
F71.38508105278015
sg7
F0.9659290313720703
ssI5
(dp12
g2
F0.3762950897216797
sg3
F0.07716202735900879
sg4
F4.707498073577881
sg5
F3.076962947845459
sg6
F26.297368049621582
sg7
F2.5605309009552
ssI6
(dp13
g2
F0.3127751350402832
sg3
F0.0838019847869873
sg4
F4.691153049468994
sg5
F8.992223978042603
sg6
F60.92315697669983
sg7
F2.1410698890686035
ssI7
(dp14
g2
F0.25212883949279785
sg3
F0.07592105865478516
sg4
F4.715043067932129
sg5
F10.951013803482056
sg6
F40.31713914871216
sg7
F2.7530438899993896
ssI8
(dp15
g2
F0.3221619129180908
sg3
F0.08506321907043457
sg4
F4.619259834289551
sg5
F1.561795949935913
sg6
F21.411218881607056
sg7
F0.9123139381408691
ssI9
(dp16
g2
F0.2897810935974121
sg3
F0.07792377471923828
sg4
F1.9342458248138428
sg5
F0.9634139537811279
sg6
F18.98080801963806
sg7
F1.9451920986175537
ss.