(dp0
I0
(dp1
S'RTI+ symbols'
p2
(dp3
S'RMSE'
p4
F0.5062449432031202
sS'MAE'
p5
F0.40778194932924006
sS'MAPE'
p6
F149.83681944111805
ssS'RTI+ time'
p7
(dp8
g4
F0.3799085567558652
sg5
F0.3228149212304286
sg6
F168.77110910027295
ssS'ARIMA'
p9
(dp10
g4
F0.7900351932525762
sg5
F0.6378735472627598
sg6
F276.14597862413484
ssS'RAI'
p11
(dp12
g4
F0.6232534469359959
sg5
F0.508144
sg6
F150.3738653082821
ssS'HMM'
p13
(dp14
g4
F0.3863788418785686
sg5
F0.33129222267833786
sg6
F174.48700051336067
ssS'Persistence'
p15
(dp16
g4
F0.8105875819428766
sg5
F0.653868
sg6
F263.1477957427093
ssS'ARMA'
p17
(dp18
g4
F1.2815046199567168
sg5
F1.019643580654852
sg6
F451.82038004750234
sssI1
(dp19
g2
(dp20
g4
F0.4476619217465392
sg5
F0.3584771427187522
sg6
F168.65372892205318
ssg7
(dp21
g4
F0.37880989552634914
sg5
F0.308040510285908
sg6
F170.63723982313513
ssg9
(dp22
g4
F0.750000416777694
sg5
F0.6054872771129718
sg6
F209.78357541086172
ssg11
(dp23
g4
F0.4108857853812906
sg5
F0.3377126800000002
sg6
F165.86294878046655
ssg13
(dp24
g4
F0.3931966397385856
sg5
F0.323320039140992
sg6
F175.68150323927227
ssg15
(dp25
g4
F0.8551243909513984
sg5
F0.6892760000000001
sg6
F207.76266627265113
ssg17
(dp26
g4
F1.1202276840866974
sg5
F0.9061988594737845
sg6
F324.5141797474538
sssI2
(dp27
g2
(dp28
g4
F0.5093883191130041
sg5
F0.41946244823982126
sg6
F127.2113299636533
ssg7
(dp29
g4
F0.4014493245980272
sg5
F0.329137920535944
sg6
F144.795406004136
ssg9
(dp30
g4
F0.7829501474721673
sg5
F0.6395999262798561
sg6
F227.96362692504664
ssg11
(dp31
g4
F0.49166560342818366
sg5
F0.4032548800000002
sg6
F139.56792165686915
ssg13
(dp32
g4
F0.47104263347877307
sg5
F0.3799758728492929
sg6
F122.70832165117459
ssg15
(dp33
g4
F0.7799255605504928
sg5
F0.5952000000000003
sg6
F200.9327960883087
ssg17
(dp34
g4
F0.7152233269712939
sg5
F0.5607778522888721
sg6
F200.88810792627586
sssI3
(dp35
g2
(dp36
g4
F0.42240695977913967
sg5
F0.32773274066045194
sg6
F105.37050661852811
ssg7
(dp37
g4
F0.42037972165011933
sg5
F0.3367613778230402
sg6
F110.81730371418749
ssg9
(dp38
g4
F0.6426844684111139
sg5
F0.5302585557973563
sg6
F135.90503548873235
ssg11
(dp39
g4
F0.5701945054849266
sg5
F0.4752543600000004
sg6
F95.90949494734542
ssg13
(dp40
g4
F0.35604945689064305
sg5
F0.29962928567356506
sg6
F89.10276115470234
ssg15
(dp41
g4
F0.9959054111711614
sg5
F0.8031480000000001
sg6
F194.24050835823562
ssg17
(dp42
g4
F0.5995546748140043
sg5
F0.49276633890724236
sg6
F113.53848362007955
sssI4
(dp43
g2
(dp44
g4
F0.49793821285184164
sg5
F0.40077144454948394
sg6
F172.58250310862198
ssg7
(dp45
g4
F0.39640414052164585
sg5
F0.31901675318481987
sg6
F164.67032962918555
ssg9
(dp46
g4
F0.7674546102596228
sg5
F0.6296693577391179
sg6
F313.2620571772984
ssg11
(dp47
g4
F0.5098988894579002
sg5
F0.42144992000000014
sg6
F149.19489393244316
ssg13
(dp48
g4
F0.39975048469412644
sg5
F0.3220836165394921
sg6
F163.39523761806427
ssg15
(dp49
g4
F0.7196624986755943
sg5
F0.5556879999999995
sg6
F232.40597669072324
ssg17
(dp50
g4
F1.2056524172726126
sg5
F0.9883487681529488
sg6
F513.2356437952759
sssI5
(dp51
g2
(dp52
g4
F0.3481180724526105
sg5
F0.2956519511163999
sg6
F135.42019514916282
ssg7
(dp53
g4
F0.3111526885727697
sg5
F0.27160350830446806
sg6
F137.4018084117118
ssg9
(dp54
g4
F0.6694623769317699
sg5
F0.5593091561972483
sg6
F201.0836266617013
ssg11
(dp55
g4
F0.38918332776315057
sg5
F0.32068983999999995
sg6
F135.22763121483842
ssg13
(dp56
g4
F0.35705103877290545
sg5
F0.2970109662178822
sg6
F123.98813177790326
ssg15
(dp57
g4
F0.9878296938237883
sg5
F0.798808
sg6
F221.9892326105714
ssg17
(dp58
g4
F0.8508130117153999
sg5
F0.7063268259851965
sg6
F270.5400377345738
sssI6
(dp59
g2
(dp60
g4
F0.3557223376781537
sg5
F0.2913744595783642
sg6
F137.26606581076885
ssg7
(dp61
g4
F0.4317969241155787
sg5
F0.341293372710784
sg6
F115.97905104259722
ssg9
(dp62
g4
F0.6153076617837097
sg5
F0.49683840466676077
sg6
F141.42443093692034
ssg11
(dp63
g4
F0.4272913740786256
sg5
F0.33213788
sg6
F141.73530711887594
ssg13
(dp64
g4
F0.4054427674046979
sg5
F0.32349175295182553
sg6
F119.52504346706776
ssg15
(dp65
g4
F0.9912407195025841
sg5
F0.8093320000000004
sg6
F255.77498691539463
ssg17
(dp66
g4
F0.5962083072066414
sg5
F0.4798212712128954
sg6
F135.36277828688202
sssI7
(dp67
g2
(dp68
g4
F0.5164669237148035
sg5
F0.4212334943914204
sg6
F153.7199384146575
ssg7
(dp69
g4
F0.3421302917415246
sg5
F0.2939475558941668
sg6
F152.08790524874848
ssg9
(dp70
g4
F0.7293969457740437
sg5
F0.5847239510701292
sg6
F232.16746512684165
ssg11
(dp71
g4
F0.4109620011246782
sg5
F0.3311818800000003
sg6
F159.3604618099453
ssg13
(dp72
g4
F0.3618377696940893
sg5
F0.3076999917801255
sg6
F143.17575823191814
ssg15
(dp73
g4
F0.8340893165602828
sg5
F0.651468
sg6
F240.58369593095537
ssg17
(dp74
g4
F1.1634647311730557
sg5
F0.9488089294442924
sg6
F352.28293242429686
sssI8
(dp75
g2
(dp76
g4
F0.3766809491791618
sg5
F0.29826625753503994
sg6
F147.0124992403818
ssg7
(dp77
g4
F0.41689576367267683
sg5
F0.31665751364797223
sg6
F135.21684593964892
ssg9
(dp78
g4
F0.611286177062348
sg5
F0.47050253632232925
sg6
F178.16274764983075
ssg11
(dp79
g4
F0.39756664127313296
sg5
F0.32252652000000015
sg6
F147.66239721359725
ssg13
(dp80
g4
F0.3893286375186892
sg5
F0.3098429548652395
sg6
F136.177438196499
ssg15
(dp81
g4
F0.9177317320437383
sg5
F0.7455
sg6
F250.14477965135777
ssg17
(dp82
g4
F0.646195343536484
sg5
F0.49550907348828066
sg6
F197.08682204200616
sssI9
(dp83
g2
(dp84
g4
F0.5237567369890227
sg5
F0.4251852028165677
sg6
F113.32424420899704
ssg7
(dp85
g4
F0.41352982612815425
sg5
F0.33523160859452783
sg6
F105.64154148385455
ssg9
(dp86
g4
F0.7869621519721071
sg5
F0.630082880756049
sg6
F199.14407580674424
ssg11
(dp87
g4
F0.48222212775441975
sg5
F0.4005435999999999
sg6
F90.8094623419276
ssg13
(dp88
g4
F0.45895759776797107
sg5
F0.37804969621997403
sg6
F103.89829672880965
ssg15
(dp89
g4
F0.80485950078259
sg5
F0.6153520000000003
sg6
F175.14710268865798
ssg17
(dp90
g4
F1.2594864020598413
sg5
F1.0155536601619646
sg6
F313.4029414782091
sss.