(dp0
I0
(dp1
S'RTITM'
p2
F1.3159239292144775
sS'RTISY'
p3
F0.11915898323059082
sS'ARIMA'
p4
F7.865526914596558
sS'RAI'
p5
F8.3121018409729
sS'HMM'
p6
F88.40350604057312
sS'ARMA'
p7
F6.925107002258301
ssI1
(dp8
g2
F1.4918849468231201
sg3
F0.13028597831726074
sg4
F5.347909927368164
sg5
F8.6094388961792
sg6
F155.14785504341125
sg7
F1.2897980213165283
ssI2
(dp9
g2
F1.4378700256347656
sg3
F0.10749101638793945
sg4
F5.838801145553589
sg5
F8.555125951766968
sg6
F109.31032299995422
sg7
F5.339331150054932
ssI3
(dp10
g2
F0.1951580047607422
sg3
F0.1391749382019043
sg4
F5.964275121688843
sg5
F8.465981006622314
sg6
F77.75822806358337
sg7
F2.2965781688690186
ssI4
(dp11
g2
F1.0060179233551025
sg3
F0.1237630844116211
sg4
F7.203474998474121
sg5
F7.285913944244385
sg6
F108.16599988937378
sg7
F5.806854009628296
ssI5
(dp12
g2
F1.249871015548706
sg3
F0.13023900985717773
sg4
F5.227849006652832
sg5
F8.353630065917969
sg6
F125.86960697174072
sg7
F2.239880084991455
ssI6
(dp13
g2
F0.8034060001373291
sg3
F0.13512396812438965
sg4
F4.748811960220337
sg5
F7.7366039752960205
sg6
F74.39322900772095
sg7
F3.0832889080047607
ssI7
(dp14
g2
F0.6637430191040039
sg3
F0.12427520751953125
sg4
F6.539275884628296
sg5
F8.383547067642212
sg6
F81.80561304092407
sg7
F1.449084997177124
ssI8
(dp15
g2
F0.9906229972839355
sg3
F0.13245201110839844
sg4
F5.9420390129089355
sg5
F8.433433055877686
sg6
F119.95808696746826
sg7
F6.1513831615448
ssI9
(dp16
g2
F1.3305490016937256
sg3
F0.08150815963745117
sg4
F4.90064811706543
sg5
F8.663606882095337
sg6
F102.49625587463379
sg7
F1.3368618488311768
ss.