(dp0
I0
(dp1
S'RTI+ symbols'
p2
(dp3
S'RMSE'
p4
F0.966387986276207
sS'MAE'
p5
F0.7490901985675803
sS'MAPE'
p6
F32.54568547194834
ssS'RTI+ time'
p7
(dp8
g4
F1.0620338616810583
sg5
F0.7773273504870721
sg6
F30.732588830705197
ssS'ARIMA'
p9
(dp10
g4
F0.7781256339673678
sg5
F0.5962376336732215
sg6
F25.80445296340775
ssS'RAI'
p11
(dp12
g4
F1.3706054689545575
sg5
F1.1199931066667326
sg6
F52.314651030907136
ssS'HMM'
p13
(dp14
g4
F1.5185559882549595
sg5
F0.7138888110309547
sg6
F22.861288468030637
ssS'Persistence'
p15
(dp16
g4
F0.5705551889512576
sg5
F0.404255666666768
sg6
F16.75156186878712
ssS'ARMA'
p17
(dp18
g4
F0.6811210135685758
sg5
F0.5099593842362459
sg6
F21.586620126196394
sssI1
(dp19
g2
(dp20
g4
F0.7080523470387821
sg5
F0.570281350061472
sg6
F66.94773972311253
ssg7
(dp21
g4
F0.5980888383526983
sg5
F0.4745240816164798
sg6
F53.66886962708813
ssg9
(dp22
g4
F0.3081264364985951
sg5
F0.2393475028328511
sg6
F23.574563334999496
ssg11
(dp23
g4
F0.3690669129513274
sg5
F0.28727095999976804
sg6
F28.526517682277415
ssg13
(dp24
g4
F0.5123100694312732
sg5
F0.3141831393647916
sg6
F29.864415739430452
ssg15
(dp25
g4
F0.2870107865759857
sg5
F0.21682999999980404
sg6
F21.13567365420156
ssg17
(dp26
g4
F0.5039955070732386
sg5
F0.39754929957526747
sg6
F38.56562128988223
sssI2
(dp27
g2
(dp28
g4
F0.5350949239525075
sg5
F0.386655615702844
sg6
F33.072156732081176
ssg7
(dp29
g4
F0.4152653662990154
sg5
F0.30309064377636374
sg6
F23.12970955492179
ssg9
(dp30
g4
F0.34101687253116275
sg5
F0.26785080521241855
sg6
F20.009436087454304
ssg11
(dp31
g4
F0.3752573658849656
sg5
F0.3006336666666437
sg6
F24.791173124434277
ssg13
(dp32
g4
F0.4750749451046832
sg5
F0.30928797958325294
sg6
F22.880658300678043
ssg15
(dp33
g4
F0.3200322156523843
sg5
F0.236355333333104
sg6
F17.168951495574106
ssg17
(dp34
g4
F0.7461298195526996
sg5
F0.5631995693421052
sg6
F40.77404666081664
sssI3
(dp35
g2
(dp36
g4
F0.9229653043772033
sg5
F0.7344782496431727
sg6
F45.883288824278765
ssg7
(dp37
g4
F0.739883145886536
sg5
F0.5353248673645278
sg6
F30.371787899657484
ssg9
(dp38
g4
F0.665761060966191
sg5
F0.5026867207938683
sg6
F28.169328112512126
ssg11
(dp39
g4
F0.7997405720056302
sg5
F0.6432291866663639
sg6
F41.180162286672456
ssg13
(dp40
g4
F0.7408581346661949
sg5
F0.49326256350791514
sg6
F27.36490623519616
ssg15
(dp41
g4
F0.5376913918419237
sg5
F0.37652499999992006
sg6
F20.81173914294691
ssg17
(dp42
g4
F0.7999066304726518
sg5
F0.5653548053185417
sg6
F32.34568792261081
sssI4
(dp43
g2
(dp44
g4
F0.9303644146952184
sg5
F0.6602382512850077
sg6
F29.828944863643002
ssg7
(dp45
g4
F0.7105694017296224
sg5
F0.5393894189533199
sg6
F26.562019284435618
ssg9
(dp46
g4
F0.4872520591270909
sg5
F0.3833808703451898
sg6
F21.730759612334687
ssg11
(dp47
g4
F1.3574160976633367
sg5
F0.975687733333196
sg6
F43.604552060093596
ssg13
(dp48
g4
F0.521992286092095
sg5
F0.3851649632254609
sg6
F21.94729523216982
ssg15
(dp49
g4
F0.3989359770758544
sg5
F0.30676233333327985
sg6
F16.890594602428056
ssg17
(dp50
g4
F0.8673480449661217
sg5
F0.6919026164802469
sg6
F39.77054972350898
sssI5
(dp51
g2
(dp52
g4
F1.0936858605265383
sg5
F0.8948283138894642
sg6
F42.58879559165669
ssg7
(dp53
g4
F0.6715750478410202
sg5
F0.5173454190643205
sg6
F23.115962442549588
ssg9
(dp54
g4
F0.5538424593883587
sg5
F0.39717875296372246
sg6
F17.450438726089647
ssg11
(dp55
g4
F1.4616070534442553
sg5
F1.1738420399999436
sg6
F70.33367233154935
ssg13
(dp56
g4
F0.9970590562534465
sg5
F0.5653063625623463
sg6
F22.498074410080783
ssg15
(dp57
g4
F0.5003542787645093
sg5
F0.36064600000026026
sg6
F16.236435755870385
ssg17
(dp58
g4
F0.935109276650258
sg5
F0.6796086801149422
sg6
F30.287259362949268
sssI6
(dp59
g2
(dp60
g4
F0.6052802267941586
sg5
F0.44854437484967197
sg6
F37.65822589378892
ssg7
(dp61
g4
F0.6333303680770804
sg5
F0.4472849857410596
sg6
F36.306401980649426
ssg9
(dp62
g4
F0.7077989806474728
sg5
F0.5118919887758141
sg6
F39.52186499520079
ssg11
(dp63
g4
F0.50364378414997
sg5
F0.373517279999928
sg6
F30.770371678082167
ssg13
(dp64
g4
F0.6631546534658602
sg5
F0.41520836017450424
sg6
F30.056435422815184
ssg15
(dp65
g4
F0.4589566099985207
sg5
F0.3147036666667121
sg6
F23.939583729892774
ssg17
(dp66
g4
F1.2677248390190035
sg5
F0.9252897049484792
sg6
F74.80350329689821
sssI7
(dp67
g2
(dp68
g4
F1.01933243774961
sg5
F0.727809612762172
sg6
F31.05898585809575
ssg7
(dp69
g4
F0.9592182112147163
sg5
F0.6366703687776604
sg6
F24.312003461956913
ssg9
(dp70
g4
F0.6002978677865061
sg5
F0.4179505745410421
sg6
F17.81539308590149
ssg11
(dp71
g4
F0.9096231137537348
sg5
F0.6382146933333315
sg6
F23.741221708556527
ssg13
(dp72
g4
F0.7109858006214179
sg5
F0.4944821550382822
sg6
F21.820854896779938
ssg15
(dp73
g4
F0.5706500274060509
sg5
F0.39644600000050406
sg6
F16.96630153896272
ssg17
(dp74
g4
F1.0020768962430515
sg5
F0.6969400123413418
sg6
F29.84303599339042
sssI8
(dp75
g2
(dp76
g4
F1.2717016531220398
sg5
F0.9397749001002885
sg6
F44.19116014503212
ssg7
(dp77
g4
F1.0094522434181452
sg5
F0.7028387469662083
sg6
F29.693710825449827
ssg9
(dp78
g4
F0.5908384923038978
sg5
F0.4315037241868831
sg6
F17.93781945089806
ssg11
(dp79
g4
F1.9292016316332212
sg5
F1.4010203200002473
sg6
F64.70110412353364
ssg13
(dp80
g4
F0.8185251566509003
sg5
F0.5187213245190746
sg6
F22.16280340081891
ssg15
(dp81
g4
F0.561709395011686
sg5
F0.3935459999997121
sg6
F16.779658127727597
ssg17
(dp82
g4
F0.9503656882516556
sg5
F0.7367200027990444
sg6
F30.80269129660207
sssI9
(dp83
g2
(dp84
g4
F2.382007010896008
sg5
F1.7578344630566083
sg6
F42.409706637721314
ssg7
(dp85
g4
F2.2022315012126894
sg5
F1.5600810723837888
sg6
F33.13121889211549
ssg9
(dp86
g4
F0.7208588272909331
sg5
F0.5023874952169843
sg6
F15.559563252959235
ssg11
(dp87
g4
F1.836847623948479
sg5
F1.2478054533335081
sg6
F26.61561086469546
ssg13
(dp88
g4
F1.628256244412911
sg5
F1.121632445768804
sg6
F26.84677199190999
ssg15
(dp89
g4
F0.6414357819680131
sg5
F0.4288373333330399
sg6
F13.4704713730695
ssg17
(dp90
g4
F1.1328479151252704
sg5
F0.8116097488300181
sg6
F24.636042619410482
sss.