(dp0
I0
(dp1
S'RTITM'
p2
F1.0364501476287842
sS'RTISY'
p3
F0.36222219467163086
sS'ARIMA'
p4
F35.356324911117554
sS'RAI'
p5
F11.544195890426636
sS'HMM'
p6
F33.10128402709961
sS'ARMA'
p7
F5.034300088882446
ssI1
(dp8
g2
F0.608659029006958
sg3
F0.375560998916626
sg4
F34.29523801803589
sg5
F10.128660917282104
sg6
F38.75513005256653
sg7
F15.32264494895935
ssI2
(dp9
g2
F0.9286470413208008
sg3
F0.3312568664550781
sg4
F26.68315601348877
sg5
F15.58519196510315
sg6
F70.25339603424072
sg7
F4.857726097106934
ssI3
(dp10
g2
F1.2111351490020752
sg3
F0.3640608787536621
sg4
F29.442952871322632
sg5
F10.818777084350586
sg6
F199.54292798042297
sg7
F4.066274166107178
ssI4
(dp11
g2
F1.5392060279846191
sg3
F0.3643069267272949
sg4
F28.662117958068848
sg5
F13.640578985214233
sg6
F109.74615907669067
sg7
F4.107999086380005
ssI5
(dp12
g2
F0.49240589141845703
sg3
F0.35433387756347656
sg4
F26.803982973098755
sg5
F18.096209049224854
sg6
F38.995224952697754
sg7
F4.0772669315338135
ssI6
(dp13
g2
F1.2520439624786377
sg3
F0.3569300174713135
sg4
F27.864310026168823
sg5
F22.259772062301636
sg6
F75.00772213935852
sg7
F4.078923940658569
ssI7
(dp14
g2
F0.8852851390838623
sg3
F0.35502195358276367
sg4
F26.4789879322052
sg5
F20.57953190803528
sg6
F89.31076693534851
sg7
F3.6812210083007812
ssI8
(dp15
g2
F0.5230190753936768
sg3
F0.35866308212280273
sg4
F27.69520092010498
sg5
F4.107156038284302
sg6
F33.07214307785034
sg7
F4.04839301109314
ssI9
(dp16
g2
F1.0321190357208252
sg3
F0.3627910614013672
sg4
F23.936203956604004
sg5
F2.648427963256836
sg6
F27.31709599494934
sg7
F19.621340036392212
ss.