(dp0
I0
(dp1
S'RTITM'
p2
F0.1749260425567627
sS'RTISY'
p3
F0.042922019958496094
sS'ARIMA'
p4
F0.8045170307159424
sS'RAI'
p5
F10.233799934387207
sS'HMM'
p6
F91.42754602432251
sS'ARMA'
p7
F0.6607320308685303
ssI1
(dp8
g2
F0.1736769676208496
sg3
F0.04630899429321289
sg4
F1.1144640445709229
sg5
F10.53320598602295
sg6
F45.12308597564697
sg7
F1.1402480602264404
ssI2
(dp9
g2
F0.21953201293945312
sg3
F0.04079699516296387
sg4
F1.1420540809631348
sg5
F11.139822006225586
sg6
F89.58158016204834
sg7
F1.8569211959838867
ssI3
(dp10
g2
F0.20935392379760742
sg3
F0.042680978775024414
sg4
F0.8145570755004883
sg5
F10.468873023986816
sg6
F42.00470209121704
sg7
F0.7869701385498047
ssI4
(dp11
g2
F0.22922992706298828
sg3
F0.03397393226623535
sg4
F1.7578539848327637
sg5
F10.453742027282715
sg6
F68.93945002555847
sg7
F1.5227389335632324
ssI5
(dp12
g2
F0.18886399269104004
sg3
F0.04369783401489258
sg4
F1.5241291522979736
sg5
F10.811892032623291
sg6
F91.4142439365387
sg7
F0.5213518142700195
ssI6
(dp13
g2
F0.2281949520111084
sg3
F0.03961610794067383
sg4
F1.194011926651001
sg5
F11.383382081985474
sg6
F117.62862515449524
sg7
F1.2519588470458984
ssI7
(dp14
g2
F0.21600985527038574
sg3
F0.0376429557800293
sg4
F1.0853748321533203
sg5
F9.586831092834473
sg6
F36.43161606788635
sg7
F1.4049501419067383
ssI8
(dp15
g2
F0.19892001152038574
sg3
F0.03913283348083496
sg4
F0.6791348457336426
sg5
F12.149363040924072
sg6
F48.46213698387146
sg7
F1.1423959732055664
ssI9
(dp16
g2
F0.19176101684570312
sg3
F0.038793087005615234
sg4
F0.5238349437713623
sg5
F11.705024003982544
sg6
F98.4776349067688
sg7
F0.47398996353149414
ss.