(dp0
I0
(dp1
S'RTI+ symbols'
p2
(dp3
S'RMSE'
p4
F0.49319349601511064
sS'MAE'
p5
F0.3989769011488849
sS'MAPE'
p6
F145.49249051539414
ssS'RTI+ time'
p7
(dp8
g4
F0.6048174040628621
sg5
F0.49187942817667163
sg6
F141.2734118262658
ssS'ARIMA'
p9
(dp10
g4
F0.7902435295614448
sg5
F0.6380902019406294
sg6
F276.3804682030001
ssS'RAI'
p11
(dp12
g4
F0.34181858776023266
sg5
F0.30051624
sg6
F177.94660560365256
ssS'HMM'
p13
(dp14
g4
F0.37862958819923115
sg5
F0.3259263553224127
sg6
F173.7983443807566
ssS'Persistence'
p15
(dp16
g4
F0.8105875819428766
sg5
F0.653868
sg6
F263.1477957427093
ssS'ARMA'
p17
(dp18
g4
F1.259110455588948
sg5
F1.0037992355431964
sg6
F445.9046626417603
sssI1
(dp19
g2
(dp20
g4
F0.4467297122654052
sg5
F0.3563901604223722
sg6
F170.2695122780018
ssg7
(dp21
g4
F0.6205553647667759
sg5
F0.5186309982458045
sg6
F138.34825828123184
ssg9
(dp22
g4
F0.7435072181284672
sg5
F0.6000892380139529
sg6
F209.6661597823046
ssg11
(dp23
g4
F0.31252609958785843
sg5
F0.2678751599999999
sg6
F167.84675651109316
ssg13
(dp24
g4
F0.3580889526364274
sg5
F0.2976183330268123
sg6
F173.04584643500846
ssg15
(dp25
g4
F0.8551243909513984
sg5
F0.6892760000000001
sg6
F207.76266627265113
ssg17
(dp26
g4
F0.6742324316088691
sg5
F0.5416695807176706
sg6
F178.50962976977473
sssI2
(dp27
g2
(dp28
g4
F0.5040943550952153
sg5
F0.4095351327887466
sg6
F119.95428886186772
ssg7
(dp29
g4
F0.5569676889139759
sg5
F0.4528945556482878
sg6
F115.9644190421713
ssg9
(dp30
g4
F0.7798694364289123
sg5
F0.6369477762706913
sg6
F227.1027692657051
ssg11
(dp31
g4
F0.35685907090110497
sg5
F0.29364219999999996
sg6
F142.42964428543937
ssg13
(dp32
g4
F0.4054677989155151
sg5
F0.3396110613726337
sg6
F123.42282519886733
ssg15
(dp33
g4
F0.7799255605504928
sg5
F0.5952000000000003
sg6
F200.9327960883087
ssg17
(dp34
g4
F1.2763521806091926
sg5
F1.0340108847366807
sg6
F351.01486763148796
sssI3
(dp35
g2
(dp36
g4
F0.35409038743696414
sg5
F0.294863998940696
sg6
F104.48480274913355
ssg7
(dp37
g4
F0.44247039598337246
sg5
F0.33997258101247235
sg6
F111.46410802610177
ssg9
(dp38
g4
F0.6619341427839431
sg5
F0.5468397379792428
sg6
F138.6659553451146
ssg11
(dp39
g4
F0.34089878063612955
sg5
F0.29107832000000017
sg6
F86.43377640407355
ssg13
(dp40
g4
F0.35601216849090406
sg5
F0.2995572548783417
sg6
F89.36261253346368
ssg15
(dp41
g4
F0.9959054111711614
sg5
F0.8031480000000001
sg6
F194.24050835823562
ssg17
(dp42
g4
F0.8286506855610372
sg5
F0.6878910659370137
sg6
F182.21066502297347
sssI4
(dp43
g2
(dp44
g4
F0.4931849961350759
sg5
F0.39395444134650787
sg6
F181.31190268832285
ssg7
(dp45
g4
F0.5527992557127899
sg5
F0.44752283963887785
sg6
F166.30828325408083
ssg9
(dp46
g4
F0.7688084539633485
sg5
F0.6309417898929532
sg6
F313.636945961303
ssg11
(dp47
g4
F0.5349538721897431
sg5
F0.4401445999999998
sg6
F143.25706994926142
ssg13
(dp48
g4
F0.3987252266524366
sg5
F0.32122801522428146
sg6
F163.41382001910395
ssg15
(dp49
g4
F0.7196624986755943
sg5
F0.5556879999999995
sg6
F232.40597669072324
ssg17
(dp50
g4
F1.2237984356114802
sg5
F1.002344907595417
sg6
F519.7687013544727
sssI5
(dp51
g2
(dp52
g4
F0.34191994347202226
sg5
F0.29143205586146004
sg6
F137.32836898985303
ssg7
(dp53
g4
F0.570031852481262
sg5
F0.47464136203408336
sg6
F113.25558327127592
ssg9
(dp54
g4
F0.6781120380069269
sg5
F0.5667891506053669
sg6
F202.70396133360833
ssg11
(dp55
g4
F0.325717824060643
sg5
F0.27700524000000004
sg6
F137.044009338136
ssg13
(dp56
g4
F0.35116760950682835
sg5
F0.2951387349755058
sg6
F124.90166245397596
ssg15
(dp57
g4
F0.9878296938237883
sg5
F0.798808
sg6
F221.9892326105714
ssg17
(dp58
g4
F0.6567974682983624
sg5
F0.5347749401187613
sg6
F126.94345786509632
sssI6
(dp59
g2
(dp60
g4
F0.3644255226856111
sg5
F0.3000236676337279
sg6
F134.4273537126367
ssg7
(dp61
g4
F0.5635092188057755
sg5
F0.4410201998643186
sg6
F114.51312083881817
ssg9
(dp62
g4
F0.6221745811178632
sg5
F0.502577399939939
sg6
F144.13849460917532
ssg11
(dp63
g4
F0.5337228718801548
sg5
F0.39385176000000016
sg6
F151.5231503125343
ssg13
(dp64
g4
F0.39926849765780675
sg5
F0.3186054983047609
sg6
F117.59854393603628
ssg15
(dp65
g4
F0.9912407195025841
sg5
F0.8093320000000004
sg6
F255.77498691539463
ssg17
(dp66
g4
F0.6874382195431198
sg5
F0.5841744493781671
sg6
F147.83337363254446
sssI7
(dp67
g2
(dp68
g4
F0.5031815618468277
sg5
F0.41038447263487626
sg6
F152.394674033894
ssg7
(dp69
g4
F0.611863234783639
sg5
F0.4977781333229457
sg6
F132.1618281154375
ssg9
(dp70
g4
F0.7282583030559726
sg5
F0.5837840266474154
sg6
F231.5687151656679
ssg11
(dp71
g4
F0.33188404267996974
sg5
F0.29047519999999993
sg6
F155.05020108297094
ssg13
(dp72
g4
F0.3617492695503119
sg5
F0.30759250472527744
sg6
F143.12953559883465
ssg15
(dp73
g4
F0.8340893165602828
sg5
F0.651468
sg6
F240.58369593095537
ssg17
(dp74
g4
F0.7303582020458977
sg5
F0.5863218264865497
sg6
F232.45595135128016
sssI8
(dp75
g2
(dp76
g4
F0.37625499285446257
sg5
F0.29748616963160807
sg6
F146.84133009009716
ssg7
(dp77
g4
F0.5856635514456936
sg5
F0.47211755376821474
sg6
F140.3974769724392
ssg9
(dp78
g4
F0.6107661711309778
sg5
F0.47056548157800304
sg6
F177.77602927145196
ssg11
(dp79
g4
F0.2946335570725101
sg5
F0.24874292000000012
sg6
F147.46215964317108
ssg13
(dp80
g4
F0.320186636989962
sg5
F0.26861632882051584
sg6
F147.66231105736202
ssg15
(dp81
g4
F0.9177317320437383
sg5
F0.7455
sg6
F250.14477965135777
ssg17
(dp82
g4
F0.9759054206522539
sg5
F0.7567794544274615
sg6
F330.4185179453711
sssI9
(dp83
g2
(dp84
g4
F0.4962377974583268
sg5
F0.40664240712071764
sg6
F115.1215538632798
ssg7
(dp85
g4
F0.5582917073802101
sg5
F0.4535452815924226
sg6
F109.65716094419804
ssg9
(dp86
g4
F0.787334833898076
sg5
F0.6307230785157512
sg6
F199.4539037610801
ssg11
(dp87
g4
F0.33600236434584796
sg5
F0.28072363999999983
sg6
F104.50438568835841
ssg13
(dp88
g4
F0.4206304857545932
sg5
F0.3465744244422474
sg6
F100.94288914961584
ssg15
(dp89
g4
F0.80485950078259
sg5
F0.6153520000000003
sg6
F175.14710268865798
ssg17
(dp90
g4
F0.7515705266276772
sg5
F0.5879232787108811
sg6
F168.91085374562635
sss.