(dp0
I0
(dp1
S'RTI+ symbols'
p2
(dp3
S'RMSE'
p4
F36.034998672740095
sS'MAE'
p5
F8.451916666708398
sS'MAPE'
p6
F3.4290874898994588
ssS'RTI+ time'
p7
(dp8
g4
F33.60278487987575
sg5
F7.609694579975194
sg6
F3.265161913633425
ssS'ARIMA'
p9
(dp10
g4
F195.31643900246513
sg5
F183.41804806861043
sg6
F661.3409318568469
ssS'RAI'
p11
(dp12
g4
F28.094705668094615
sg5
F8.093536719999994
sg6
F4.311505203607535
ssS'HMM'
p13
(dp14
g4
F129.03174718872563
sg5
F75.21106283826668
sg6
F161.0663105429096
ssS'Persistence'
p15
(dp16
g4
F201.9551534375887
sg5
F94.372
sg6
F241.656533026383
ssS'ARMA'
p17
(dp18
g4
F202.1299788508029
sg5
F94.12037665809908
sg6
F240.58138054714095
sssI1
(dp19
g2
(dp20
g4
F37.839166175770806
sg5
F9.387248711372
sg6
F3.5855021178929762
ssg7
(dp21
g4
F41.73267881202042
sg5
F9.756408123251202
sg6
F9.256422969385659
ssg9
(dp22
g4
F195.33136020909137
sg5
F185.74834872109693
sg6
F678.1733962382499
ssg11
(dp23
g4
F41.86015540995259
sg5
F10.889121240000001
sg6
F4.90586733623406
ssg13
(dp24
g4
F128.44173329159753
sg5
F75.41637916261824
sg6
F163.33770955422665
ssg15
(dp25
g4
F200.81463094107463
sg5
F93.868
sg6
F240.87561313767392
ssg17
(dp26
g4
F199.8523214925924
sg5
F93.7223200487529
sg6
F240.2518587140925
sssI2
(dp27
g2
(dp28
g4
F39.12564780633148
sg5
F10.279562932720806
sg6
F3.922467346593876
ssg7
(dp29
g4
F142.61071839101015
sg5
F50.248
sg6
F32.25345146174879
ssg9
(dp30
g4
F200.25886469940286
sg5
F184.5932862060705
sg6
F662.7016457213663
ssg11
(dp31
g4
F42.743726204031006
sg5
F11.448923279999997
sg6
F5.170867361651773
ssg13
(dp32
g4
F128.5182916678582
sg5
F76.1910687551038
sg6
F166.9368148170895
ssg15
(dp33
g4
F201.46947163280097
sg5
F94.164
sg6
F241.58180629863693
ssg17
(dp34
g4
F201.81482598412904
sg5
F97.54423075423321
sg6
F255.61520222107262
sssI3
(dp35
g2
(dp36
g4
F38.488698943593064
sg5
F9.738093000581598
sg6
F3.693655124290782
ssg7
(dp37
g4
F29.145975080175567
sg5
F3.869289562248385
sg6
F2.7126254028260934
ssg9
(dp38
g4
F199.8438721533179
sg5
F187.24621506107616
sg6
F677.2417140791198
ssg11
(dp39
g4
F29.401042233212344
sg5
F8.66124144
sg6
F4.516670878045198
ssg13
(dp40
g4
F129.78933707099623
sg5
F76.26421742195295
sg6
F165.51410184312005
ssg15
(dp41
g4
F202.73283897780348
sg5
F94.708
sg6
F242.84881851086448
ssg17
(dp42
g4
F202.65006619165015
sg5
F94.11716793199234
sg6
F240.3178040183068
sssI4
(dp43
g2
(dp44
g4
F32.3623993569472
sg5
F6.091490120285197
sg6
F3.0852815275881094
ssg7
(dp45
g4
F42.51728119967731
sg5
F9.009559999750813
sg6
F24.38802709109957
ssg9
(dp46
g4
F199.11646232252704
sg5
F185.60854281031695
sg6
F669.8072585791567
ssg11
(dp47
g4
F23.48988686314595
sg5
F5.8178462000000035
sg6
F4.022393449356541
ssg13
(dp48
g4
F128.81123989065134
sg5
F73.82218271899931
sg6
F153.9963047314792
ssg15
(dp49
g4
F201.94606210570188
sg5
F94.348
sg6
F241.56351699769073
ssg17
(dp50
g4
F201.99297038410506
sg5
F94.34626311259349
sg6
F241.5560672541284
sssI5
(dp51
g2
(dp52
g4
F30.098415023507787
sg5
F3.0555578992408132
sg6
F2.3477891129170336
ssg7
(dp53
g4
F28.778054888078028
sg5
F3.0240688941231926
sg6
F2.0178441808797984
ssg9
(dp54
g4
F201.2159738688153
sg5
F186.93012440213744
sg6
F674.5738784196501
ssg11
(dp55
g4
F20.61701514889222
sg5
F2.726413080000002
sg6
F2.8254672875507083
ssg13
(dp56
g4
F128.74826558461766
sg5
F73.30513249698018
sg6
F151.29702901839477
ssg15
(dp57
g4
F201.99084137653372
sg5
F94.388
sg6
F241.6993344390464
ssg17
(dp58
g4
F201.94818774074656
sg5
F94.96422593709838
sg6
F244.1881893382176
sssI6
(dp59
g2
(dp60
g4
F40.807204327303154
sg5
F4.796988685976398
sg6
F3.422542266564697
ssg7
(dp61
g4
F40.54996035131478
sg5
F4.771553718461618
sg6
F3.1336635553169767
ssg9
(dp62
g4
F198.98088052582227
sg5
F182.8533770755183
sg6
F651.2718923955847
ssg11
(dp63
g4
F33.94632288330641
sg5
F4.216310279999996
sg6
F3.84829835101191
ssg13
(dp64
g4
F129.6480844897013
sg5
F72.13630736011831
sg6
F143.97722534841438
ssg15
(dp65
g4
F201.942942436719
sg5
F94.448
sg6
F240.37988742346434
ssg17
(dp66
g4
F201.87008521227034
sg5
F94.13766795944511
sg6
F239.04844484179776
sssI7
(dp67
g2
(dp68
g4
F28.984475931528927
sg5
F3.059544543563995
sg6
F2.8884073807358686
ssg7
(dp69
g4
F29.350348291546137
sg5
F3.2565528653692146
sg6
F4.249098430055536
ssg9
(dp70
g4
F199.188035323457
sg5
F184.59576626974297
sg6
F664.4527829596414
ssg11
(dp71
g4
F79.74838360727962
sg5
F26.055274800000017
sg6
F96.0194187227662
ssg13
(dp72
g4
F127.93133827857059
sg5
F73.33832025600789
sg6
F152.65745173312743
ssg15
(dp73
g4
F200.8787196295317
sg5
F93.9
sg6
F241.40593906253235
ssg17
(dp74
g4
F200.8210371295825
sg5
F94.14700945058965
sg6
F242.46514646697102
sssI8
(dp75
g2
(dp76
g4
F30.2503170179669
sg5
F3.3151666666764155
sg6
F2.2623161409983537
ssg7
(dp77
g4
F28.892519445647793
sg5
F3.147177631586411
sg6
F1.921532446577734
ssg9
(dp78
g4
F200.71543743327075
sg5
F186.03866610679526
sg6
F669.4275738891255
ssg11
(dp79
g4
F20.09174190870976
sg5
F1.85223464
sg6
F2.69080627204644
ssg13
(dp80
g4
F128.56855330491962
sg5
F71.8392118389436
sg6
F144.5023110732134
ssg15
(dp81
g4
F201.9996732670625
sg5
F94.388
sg6
F242.0854816251936
ssg17
(dp82
g4
F202.08711382066747
sg5
F94.57684278645667
sg6
F242.89403079042165
sssI9
(dp83
g2
(dp84
g4
F30.066057777752295
sg5
F2.3797916666752097
sg6
F2.2360977836116307
ssg7
(dp85
g4
F28.744929895800826
sg5
F2.294563025213213
sg6
F2.2184951215359
ssg9
(dp86
g4
F191.05116366698988
sg5
F179.69768448916312
sg6
F649.7684459331381
ssg11
(dp87
g4
F20.265599509528307
sg5
F1.9358482799999988
sg6
F2.8151815392694552
ssg13
(dp88
g4
F128.92229068388886
sg5
F72.05206763403721
sg6
F145.03211256367277
ssg15
(dp89
g4
F201.99070275633974
sg5
F94.364
sg6
F241.9776957487082
ssg17
(dp90
g4
F202.0196607897178
sg5
F94.28140589665878
sg6
F241.6238281698084
sss.